; Function Attrs: mustprogress nounwind uwtable
define void @_ZN3nix9SQLiteTxnD2Ev(ptr nocapture noundef nonnull readonly align 8 dereferenceable(16) %0) unnamed_addr #4 align 2 personality ptr @__gxx_personality_v0 {
  %2 = alloca %"class.std::__cxx11::basic_string", align 8
  %3 = alloca %"class.std::allocator.4", align 1
  %4 = load i8, ptr %0, align 8
  %5 = and i8 %4, 1
  %.not = icmp eq i8 %5, 0
  br i1 %.not, label %25, label %6

6:                                                ; preds = %1
  %7 = getelementptr inbounds i8, ptr %0, i64 8
  %8 = load ptr, ptr %7, align 8
  %9 = invoke i32 @sqlite3_exec(ptr noundef %8, ptr noundef nonnull @.str.30, ptr noundef null, ptr noundef null, ptr noundef null)
          to label %10 unwind label %15

10:                                               ; preds = %6
  %.not2 = icmp eq i32 %9, 0
  br i1 %.not2, label %25, label %11

11:                                               ; preds = %10
  %12 = load ptr, ptr %7, align 8
  call void @_ZNSaIcEC1Ev(ptr noundef nonnull align 1 dereferenceable(1) %3) #22
  invoke void @_ZNSt7__cxx1112basic_stringIcSt11char_traitsIcESaIcEEC2IS3_EEPKcRKS3_(ptr noundef nonnull align 8 dereferenceable(32) %2, ptr noundef nonnull @.str.31, ptr noundef nonnull align 1 dereferenceable(1) %3)
          to label %13 unwind label %17

13:                                               ; preds = %11
  invoke void @_ZN3nix11SQLiteError6throw_IJEEEvP7sqlite3RKNSt7__cxx1112basic_stringIcSt11char_traitsIcESaIcEEEDpRKT_(ptr noundef %12, ptr noundef nonnull align 8 dereferenceable(32) %2) #24
          to label %14 unwind label %19

14:                                               ; preds = %13
  unreachable

15:                                               ; preds = %6
  %16 = landingpad { ptr, i32 }
          catch ptr null
  br label %22

17:                                               ; preds = %11
  %18 = landingpad { ptr, i32 }
          catch ptr null
  br label %21

19:                                               ; preds = %13
  %20 = landingpad { ptr, i32 }
          catch ptr null
  call void @_ZNSt7__cxx1112basic_stringIcSt11char_traitsIcESaIcEED2Ev(ptr noundef nonnull align 8 dereferenceable(32) %2) #22
  br label %21

21:                                               ; preds = %19, %17
  %.pn = phi { ptr, i32 } [ %20, %19 ], [ %18, %17 ]
  call void @_ZNSaIcED1Ev(ptr noundef nonnull align 1 dereferenceable(1) %3) #22
  br label %22

22:                                               ; preds = %21, %15
  %.pn.pn = phi { ptr, i32 } [ %.pn, %21 ], [ %16, %15 ]
  %.1 = extractvalue { ptr, i32 } %.pn.pn, 0
  %23 = call ptr @__cxa_begin_catch(ptr %.1) #22
  invoke void @_ZN3nix15ignoreExceptionENS_9VerbosityE(i32 noundef 0)
          to label %24 unwind label %26

24:                                               ; preds = %22
  invoke void @__cxa_end_catch()
          to label %25 unwind label %26

25:                                               ; preds = %1, %10, %24
  ret void

26:                                               ; preds = %24, %22
  %27 = landingpad { ptr, i32 }
          catch ptr null
  %28 = extractvalue { ptr, i32 } %27, 0
  call void @__clang_call_terminate(ptr %28) #26
  unreachable
}